; Function Attrs: mustprogress uwtable
define hidden void @_ZN3sat4ddfw15save_prioritiesEv(ptr noundef nonnull align 8 dereferenceable(434) %0) local_unnamed_addr #4 align 2 {
  %2 = getelementptr inbounds nuw i8, ptr %0, i64 96
  %3 = load ptr, ptr %2, align 8, !tbaa !31
  %.not.i = icmp eq ptr %3, null
  br i1 %.not.i, label %_ZN6vectorIdLb0EjE5resetEv.exit, label %4

4:                                                ; preds = %1
  %5 = getelementptr inbounds i8, ptr %3, i64 -4
  store i32 0, ptr %5, align 4, !tbaa !26
  br label %_ZN6vectorIdLb0EjE5resetEv.exit

_ZN6vectorIdLb0EjE5resetEv.exit:                  ; preds = %1, %4
  %6 = getelementptr inbounds nuw i8, ptr %0, i64 88
  br label %7

7:                                                ; preds = %_ZN6vectorIdLb0EjE9push_backEOd.exit, %_ZN6vectorIdLb0EjE5resetEv.exit
  %8 = phi ptr [ %29, %_ZN6vectorIdLb0EjE9push_backEOd.exit ], [ %3, %_ZN6vectorIdLb0EjE5resetEv.exit ]
  %indvars.iv = phi i64 [ %indvars.iv.next, %_ZN6vectorIdLb0EjE9push_backEOd.exit ], [ 0, %_ZN6vectorIdLb0EjE5resetEv.exit ]
  %9 = load ptr, ptr %6, align 8, !tbaa !34
  %10 = icmp eq ptr %9, null
  br i1 %10, label %_ZNK3sat4ddfw8num_varsEv.exit, label %11

11:                                               ; preds = %7
  %12 = getelementptr inbounds i8, ptr %9, i64 -4
  %13 = load i32, ptr %12, align 4, !tbaa !26
  %14 = zext i32 %13 to i64
  br label %_ZNK3sat4ddfw8num_varsEv.exit

_ZNK3sat4ddfw8num_varsEv.exit:                    ; preds = %7, %11
  %.0.i.i = phi i64 [ %14, %11 ], [ 0, %7 ]
  %15 = icmp samesign ult i64 %indvars.iv, %.0.i.i
  br i1 %15, label %17, label %16

16:                                               ; preds = %_ZNK3sat4ddfw8num_varsEv.exit
  ret void

17:                                               ; preds = %_ZNK3sat4ddfw8num_varsEv.exit
  %18 = getelementptr inbounds nuw %"struct.sat::ddfw::var_info", ptr %9, i64 %indvars.iv, i32 5, i32 2
  %19 = load double, ptr %18, align 8, !tbaa !164
  %20 = fneg double %19
  %21 = icmp eq ptr %8, null
  br i1 %21, label %28, label %22

22:                                               ; preds = %17
  %23 = getelementptr inbounds i8, ptr %8, i64 -4
  %24 = load i32, ptr %23, align 4, !tbaa !26
  %25 = getelementptr inbounds i8, ptr %8, i64 -8
  %26 = load i32, ptr %25, align 4, !tbaa !26
  %27 = icmp eq i32 %24, %26
  br i1 %27, label %28, label %_ZN6vectorIdLb0EjE9push_backEOd.exit

28:                                               ; preds = %22, %17
  tail call void @_ZN6vectorIdLb0EjE13expand_vectorEv(ptr noundef nonnull align 8 dereferenceable(8) %2)
  %.pre.i = load ptr, ptr %2, align 8, !tbaa !31
  %.phi.trans.insert.i = getelementptr inbounds i8, ptr %.pre.i, i64 -4
  %.pre2.i = load i32, ptr %.phi.trans.insert.i, align 4, !tbaa !26
  br label %_ZN6vectorIdLb0EjE9push_backEOd.exit

_ZN6vectorIdLb0EjE9push_backEOd.exit:             ; preds = %22, %28
  %29 = phi ptr [ %.pre.i, %28 ], [ %8, %22 ]
  %30 = phi i32 [ %.pre2.i, %28 ], [ %24, %22 ]
  %31 = getelementptr inbounds i8, ptr %29, i64 -4
  %32 = zext i32 %30 to i64
  %33 = getelementptr inbounds nuw double, ptr %29, i64 %32
  store double %20, ptr %33, align 8, !tbaa !103
  %34 = add i32 %30, 1
  store i32 %34, ptr %31, align 4, !tbaa !26
  %indvars.iv.next = add nuw nsw i64 %indvars.iv, 1
  br label %7, !llvm.loop !180
}